; Function Attrs: nounwind uwtable
define internal fastcc ptr @consts_dict_keys_inorder(ptr noundef %0) unnamed_addr #0 {
  %2 = alloca ptr, align 8
  %3 = alloca ptr, align 8
  %4 = alloca i64, align 8
  call void @llvm.lifetime.start.p0(i64 8, ptr nonnull %2) #11
  call void @llvm.lifetime.start.p0(i64 8, ptr nonnull %3) #11
  call void @llvm.lifetime.start.p0(i64 8, ptr nonnull %4) #11
  store i64 0, ptr %4, align 8, !tbaa !45
  %5 = getelementptr i8, ptr %0, i64 16
  %.val = load i64, ptr %5, align 8, !tbaa !37
  %6 = tail call ptr @PyList_New(i64 noundef %.val) #11
  %7 = icmp eq ptr %6, null
  br i1 %7, label %.loopexit, label %.preheader

.preheader:                                       ; preds = %1
  %8 = call i32 @PyDict_Next(ptr noundef nonnull %0, ptr noundef nonnull %4, ptr noundef nonnull %2, ptr noundef nonnull %3) #11
  %.not11 = icmp eq i32 %8, 0
  br i1 %.not11, label %.loopexit, label %.lr.ph

.lr.ph:                                           ; preds = %.preheader
  %9 = getelementptr i8, ptr %6, i64 24
  br label %10

10:                                               ; preds = %.lr.ph, %_Py_NewRef.exit
  %11 = load ptr, ptr %3, align 8, !tbaa !28
  %12 = call i64 @PyLong_AsLong(ptr noundef %11) #11
  %13 = load ptr, ptr %2, align 8, !tbaa !28
  %14 = getelementptr i8, ptr %13, i64 8
  %.val8 = load ptr, ptr %14, align 8, !tbaa !90
  %.not10 = icmp eq ptr %.val8, @PyTuple_Type
  br i1 %.not10, label %15, label %18

15:                                               ; preds = %10
  %16 = getelementptr i8, ptr %13, i64 32
  %17 = load ptr, ptr %16, align 8, !tbaa !28
  store ptr %17, ptr %2, align 8, !tbaa !28
  br label %18

18:                                               ; preds = %15, %10
  %19 = phi ptr [ %17, %15 ], [ %13, %10 ]
  %20 = load i32, ptr %19, align 8, !tbaa !4
  %21 = icmp slt i32 %20, 0
  br i1 %21, label %_Py_NewRef.exit, label %22

22:                                               ; preds = %18
  %23 = add nuw i32 %20, 1
  store i32 %23, ptr %19, align 8, !tbaa !4
  br label %_Py_NewRef.exit

_Py_NewRef.exit:                                  ; preds = %18, %22
  %.val9 = load ptr, ptr %9, align 8, !tbaa !25
  %24 = getelementptr ptr, ptr %.val9, i64 %12
  store ptr %19, ptr %24, align 8, !tbaa !28
  %25 = call i32 @PyDict_Next(ptr noundef nonnull %0, ptr noundef nonnull %4, ptr noundef nonnull %2, ptr noundef nonnull %3) #11
  %.not = icmp eq i32 %25, 0
  br i1 %.not, label %.loopexit, label %10, !llvm.loop !126

.loopexit:                                        ; preds = %_Py_NewRef.exit, %.preheader, %1
  call void @llvm.lifetime.end.p0(i64 8, ptr nonnull %4) #11
  call void @llvm.lifetime.end.p0(i64 8, ptr nonnull %3) #11
  call void @llvm.lifetime.end.p0(i64 8, ptr nonnull %2) #11
  ret ptr %6
}